; Function Attrs: mustprogress nounwind uwtable
define hidden noundef zeroext i1 @_ZN24G1MonotonicArenaFreePool23G1ReturnMemoryProcessor12return_to_osEl(ptr nocapture noundef nonnull align 8 dereferenceable(40) %0, i64 noundef %1) local_unnamed_addr #1 align 2 {
  %3 = getelementptr inbounds i8, ptr %0, i64 16
  br label %4

4:                                                ; preds = %6, %2
  %.06 = phi i64 [ 0, %2 ], [ %17, %6 ]
  %.0 = phi i64 [ 0, %2 ], [ %9, %6 ]
  %5 = load ptr, ptr %3, align 8
  %.not = icmp eq ptr %5, null
  br i1 %.not, label %20, label %6

6:                                                ; preds = %4
  %7 = getelementptr inbounds i8, ptr %5, i64 8
  %8 = load volatile ptr, ptr %7, align 8
  %9 = add i64 %.0, 1
  %10 = load i32, ptr %5, align 8
  %11 = getelementptr inbounds i8, ptr %5, i64 4
  %12 = load i32, ptr %11, align 4
  %13 = zext i32 %10 to i64
  %14 = zext i32 %12 to i64
  %15 = mul nuw i64 %14, %13
  %16 = add i64 %.06, 128
  %17 = add i64 %16, %15
  tail call void @_ZN16G1MonotonicArena7Segment14delete_segmentEPS0_(ptr noundef nonnull %5) #8
  store ptr %8, ptr %3, align 8
  %18 = tail call noundef i64 @_ZN2os15elapsed_counterEv() #8
  %19 = icmp sgt i64 %18, %1
  br i1 %19, label %20, label %4, !llvm.loop !9

20:                                               ; preds = %6, %4
  %.17 = phi i64 [ %17, %6 ], [ %.06, %4 ]
  %.1 = phi i64 [ %9, %6 ], [ %.0, %4 ]
  %21 = load volatile ptr, ptr getelementptr inbounds (i8, ptr @_ZN16LogTagSetMappingILN6LogTag4typeE49ELS1_158ELS1_0ELS1_0ELS1_0ELS1_0EE7_tagsetE, i64 48), align 8
  %.not9 = icmp eq ptr %21, null
  br i1 %.not9, label %23, label %22

22:                                               ; preds = %20
  tail call void (ptr, ...) @_ZN7LogImplILN6LogTag4typeE49ELS1_158ELS1_0ELS1_0ELS1_0ELS1_0EE5writeILN8LogLevel4typeE1EEEvPKcz(ptr noundef nonnull @.str.4, i64 noundef %.1, i64 noundef %.17)
  br label %23

23:                                               ; preds = %20, %22
  %24 = load ptr, ptr %3, align 8
  %25 = icmp ne ptr %24, null
  ret i1 %25
}